target datalayout = "e-m:e-p270:32:32-p271:32:32-p272:64:64-i64:64-i128:128-f80:128-n8:16:32:64-S128"
target triple = "x86_64-pc-linux-gnu"

%"class.duckdb::CompressionInfo" = type { i64 }
%"struct.duckdb::roaring::RoaringAnalyzeState" = type { %"struct.duckdb::AnalyzeState", %"class.duckdb::unique_ptr.64", i16, i16, i16, i8, i16, i64, i64, i64, i64, i64, i64, %"struct.duckdb::roaring::ContainerMetadataCollection", %"class.duckdb::vector.79" }
%"struct.duckdb::AnalyzeState" = type { ptr, %"class.duckdb::CompressionInfo" }
%"class.duckdb::unique_ptr.64" = type { %"class.std::unique_ptr.65" }
%"class.std::unique_ptr.65" = type { %"struct.std::__uniq_ptr_data.66" }
%"struct.std::__uniq_ptr_data.66" = type { %"class.std::__uniq_ptr_impl.67" }
%"class.std::__uniq_ptr_impl.67" = type { %"class.std::tuple.68" }
%"class.std::tuple.68" = type { %"struct.std::_Tuple_impl.69" }
%"struct.std::_Tuple_impl.69" = type { %"struct.std::_Head_base.72" }
%"struct.std::_Head_base.72" = type { ptr }
%"struct.duckdb::roaring::ContainerMetadataCollection" = type { %"class.duckdb::vector.73", %"class.duckdb::vector.73", %"class.duckdb::vector.73", i64, i64, i64 }
%"class.duckdb::vector.73" = type { %"class.std::vector.74" }
%"class.std::vector.74" = type { %"struct.std::_Vector_base.75" }
%"struct.std::_Vector_base.75" = type { %"struct.std::_Vector_base<unsigned char, std::allocator<unsigned char>>::_Vector_impl" }
%"struct.std::_Vector_base<unsigned char, std::allocator<unsigned char>>::_Vector_impl" = type { %"struct.std::_Vector_base<unsigned char, std::allocator<unsigned char>>::_Vector_impl_data" }
%"struct.std::_Vector_base<unsigned char, std::allocator<unsigned char>>::_Vector_impl_data" = type { ptr, ptr, ptr }
%"class.duckdb::vector.79" = type { %"class.std::vector.80" }
%"class.std::vector.80" = type { %"struct.std::_Vector_base.81" }
%"struct.std::_Vector_base.81" = type { %"struct.std::_Vector_base<duckdb::roaring::ContainerMetadata, std::allocator<duckdb::roaring::ContainerMetadata>>::_Vector_impl" }
%"struct.std::_Vector_base<duckdb::roaring::ContainerMetadata, std::allocator<duckdb::roaring::ContainerMetadata>>::_Vector_impl" = type { %"struct.std::_Vector_base<duckdb::roaring::ContainerMetadata, std::allocator<duckdb::roaring::ContainerMetadata>>::_Vector_impl_data" }
%"struct.std::_Vector_base<duckdb::roaring::ContainerMetadata, std::allocator<duckdb::roaring::ContainerMetadata>>::_Vector_impl_data" = type { ptr, ptr, ptr }

; Function Attrs: mustprogress nounwind uwtable
define void @_ZN6duckdb7roaring27ContainerMetadataCollection12FlushSegmentEv(ptr noundef nonnull align 8 dereferenceable(96) %0) #2 align 2 {
  %2 = alloca ptr, align 8
  store ptr %0, ptr %2, align 8, !tbaa !285
  %3 = load ptr, ptr %2, align 8
  %4 = getelementptr inbounds nuw %"struct.duckdb::roaring::ContainerMetadataCollection", ptr %3, i32 0, i32 4
  store i64 0, ptr %4, align 8, !tbaa !288
  %5 = getelementptr inbounds nuw %"struct.duckdb::roaring::ContainerMetadataCollection", ptr %3, i32 0, i32 3
  store i64 0, ptr %5, align 8, !tbaa !287
  %6 = getelementptr inbounds nuw %"struct.duckdb::roaring::ContainerMetadataCollection", ptr %3, i32 0, i32 5
  store i64 0, ptr %6, align 8, !tbaa !289
  ret void
}

; Function Attrs: mustprogress nounwind uwtable
define void @_ZN6duckdb7roaring19RoaringAnalyzeState12FlushSegmentEv(ptr noundef nonnull align 8 dereferenceable(208) %0) #2 align 2 {
  %2 = alloca ptr, align 8
  %3 = alloca i64, align 8
  %4 = alloca i32, align 4
  store ptr %0, ptr %2, align 8, !tbaa !97
  %5 = load ptr, ptr %2, align 8
  call void @llvm.lifetime.start.p0(i64 8, ptr %3) #19
  %6 = getelementptr inbounds nuw %"struct.duckdb::roaring::RoaringAnalyzeState", ptr %5, i32 0, i32 7
  %7 = load i64, ptr %6, align 8, !tbaa !132
  %8 = getelementptr inbounds nuw %"struct.duckdb::roaring::RoaringAnalyzeState", ptr %5, i32 0, i32 8
  %9 = load i64, ptr %8, align 8, !tbaa !131
  %10 = add i64 %7, %9
  store i64 %10, ptr %3, align 8, !tbaa !8
  %11 = getelementptr inbounds nuw %"struct.duckdb::roaring::RoaringAnalyzeState", ptr %5, i32 0, i32 10
  %12 = load i64, ptr %11, align 8, !tbaa !138
  %13 = icmp ne i64 %12, 0
  br i1 %13, label %15, label %14

14:                                               ; preds = %1
  store i32 1, ptr %4, align 4
  br label %27

15:                                               ; preds = %1
  %16 = getelementptr inbounds nuw %"struct.duckdb::roaring::RoaringAnalyzeState", ptr %5, i32 0, i32 13
  call void @_ZN6duckdb7roaring27ContainerMetadataCollection12FlushSegmentEv(ptr noundef nonnull align 8 dereferenceable(96) %16)
  %17 = load i64, ptr %3, align 8, !tbaa !8
  %18 = getelementptr inbounds nuw %"struct.duckdb::roaring::RoaringAnalyzeState", ptr %5, i32 0, i32 12
  %19 = load i64, ptr %18, align 8, !tbaa !129
  %20 = add i64 %19, %17
  store i64 %20, ptr %18, align 8, !tbaa !129
  %21 = getelementptr inbounds nuw %"struct.duckdb::roaring::RoaringAnalyzeState", ptr %5, i32 0, i32 7
  store i64 0, ptr %21, align 8, !tbaa !132
  %22 = getelementptr inbounds nuw %"struct.duckdb::roaring::RoaringAnalyzeState", ptr %5, i32 0, i32 8
  store i64 0, ptr %22, align 8, !tbaa !131
  %23 = getelementptr inbounds nuw %"struct.duckdb::roaring::RoaringAnalyzeState", ptr %5, i32 0, i32 10
  store i64 0, ptr %23, align 8, !tbaa !138
  %24 = getelementptr inbounds nuw %"struct.duckdb::roaring::RoaringAnalyzeState", ptr %5, i32 0, i32 9
  %25 = load i64, ptr %24, align 8, !tbaa !143
  %26 = add i64 %25, 1
  store i64 %26, ptr %24, align 8, !tbaa !143
  store i32 0, ptr %4, align 4
  br label %27

27:                                               ; preds = %15, %14
  call void @llvm.lifetime.end.p0(i64 8, ptr %3) #19
  %28 = load i32, ptr %4, align 4
  switch i32 %28, label %30 [
    i32 0, label %29
    i32 1, label %29
  ]

29:                                               ; preds = %27, %27
  ret void

30:                                               ; preds = %27
  unreachable
}