; Function Attrs: mustprogress nofree norecurse nosync nounwind willreturn memory(argmem: readwrite) uwtable
define void @_ZN6duckdb7roaring19RoaringAnalyzeState12FlushSegmentEv(ptr noundef nonnull align 8 captures(none) dereferenceable(208) %0) local_unnamed_addr #5 align 2 {
  %2 = getelementptr inbounds nuw i8, ptr %0, i64 64
  %3 = load i64, ptr %2, align 8, !tbaa !112
  %.not = icmp eq i64 %3, 0
  br i1 %.not, label %17, label %4

4:                                                ; preds = %1
  %5 = getelementptr inbounds nuw i8, ptr %0, i64 40
  %6 = load i64, ptr %5, align 8, !tbaa !114
  %7 = getelementptr inbounds nuw i8, ptr %0, i64 48
  %8 = load i64, ptr %7, align 8, !tbaa !115
  %9 = add i64 %8, %6
  %10 = getelementptr inbounds nuw i8, ptr %0, i64 160
  tail call void @llvm.memset.p0.i64(ptr noundef nonnull align 8 dereferenceable(24) %10, i8 0, i64 24, i1 false)
  %11 = getelementptr inbounds nuw i8, ptr %0, i64 80
  %12 = load i64, ptr %11, align 8, !tbaa !113
  %13 = add i64 %9, %12
  store i64 %13, ptr %11, align 8, !tbaa !113
  store i64 0, ptr %2, align 8, !tbaa !112
  %14 = getelementptr inbounds nuw i8, ptr %0, i64 56
  tail call void @llvm.memset.p0.i64(ptr noundef nonnull align 8 dereferenceable(16) %5, i8 0, i64 16, i1 false)
  %15 = load i64, ptr %14, align 8, !tbaa !116
  %16 = add i64 %15, 1
  store i64 %16, ptr %14, align 8, !tbaa !116
  br label %17

17:                                               ; preds = %1, %4
  ret void
}